
sun.o:	file format Mach-O arm64


Disassembly of section __TEXT,__text:

0000000000000000 ltmp0:
       0: fd 7b bf a9                  	stp	x29, x30, [sp, #-16]!
       4: fd 03 00 91                  	mov	x29, sp
       8: 00 00 00 90                  	adrp	x0, #0
       c: 00 00 40 f9                  	ldr	x0, [x0]
      10: 01 00 00 90                  	adrp	x1, #0
      14: 21 00 00 91                  	add	x1, x1, #0
      18: 00 00 00 94                  	bl	#0 <ltmp0+0x18>
      1c: 01 00 00 90                  	adrp	x1, #0
      20: 21 00 00 91                  	add	x1, x1, #0
      24: 00 00 00 94                  	bl	#0 <ltmp0+0x24>
      28: 00 00 00 94                  	bl	#0 <ltmp0+0x28>
      2c: fd 7b c1 a8                  	ldp	x29, x30, [sp], #16
      30: c0 03 5f d6                  	ret

0000000000000034 __ZNSt3__1lsINS_11char_traitsIcEEEERNS_13basic_ostreamIcT_EES6_PKc:
      34: ff 03 01 d1                  	sub	sp, sp, #64
      38: fd 7b 03 a9                  	stp	x29, x30, [sp, #48]
      3c: fd c3 00 91                  	add	x29, sp, #48
      40: a0 83 1f f8                  	stur	x0, [x29, #-8]
      44: a1 03 1f f8                  	stur	x1, [x29, #-16]
      48: a0 83 5f f8                  	ldur	x0, [x29, #-8]
      4c: a1 03 5f f8                  	ldur	x1, [x29, #-16]
      50: a8 03 5f f8                  	ldur	x8, [x29, #-16]
      54: e0 0f 00 f9                  	str	x0, [sp, #24]
      58: e0 03 08 aa                  	mov	x0, x8
      5c: e1 0b 00 f9                  	str	x1, [sp, #16]
      60: 00 00 00 94                  	bl	#0 <__ZNSt3__1lsINS_11char_traitsIcEEEERNS_13basic_ostreamIcT_EES6_PKc+0x2c>
      64: e8 0f 40 f9                  	ldr	x8, [sp, #24]
      68: e0 07 00 f9                  	str	x0, [sp, #8]
      6c: e0 03 08 aa                  	mov	x0, x8
      70: e1 0b 40 f9                  	ldr	x1, [sp, #16]
      74: e2 07 40 f9                  	ldr	x2, [sp, #8]
      78: 00 00 00 94                  	bl	#0 <__ZNSt3__1lsINS_11char_traitsIcEEEERNS_13basic_ostreamIcT_EES6_PKc+0x44>
      7c: fd 7b 43 a9                  	ldp	x29, x30, [sp, #48]
      80: ff 03 01 91                  	add	sp, sp, #64
      84: c0 03 5f d6                  	ret

0000000000000088 __ZNSt3__113basic_ostreamIcNS_11char_traitsIcEEElsEPFRS3_S4_E:
      88: ff 83 00 d1                  	sub	sp, sp, #32
      8c: fd 7b 01 a9                  	stp	x29, x30, [sp, #16]
      90: fd 43 00 91                  	add	x29, sp, #16
      94: e0 07 00 f9                  	str	x0, [sp, #8]
      98: e1 03 00 f9                  	str	x1, [sp]
      9c: e0 07 40 f9                  	ldr	x0, [sp, #8]
      a0: e8 03 40 f9                  	ldr	x8, [sp]
      a4: 00 01 3f d6                  	blr	x8
      a8: fd 7b 41 a9                  	ldp	x29, x30, [sp, #16]
      ac: ff 83 00 91                  	add	sp, sp, #32
      b0: c0 03 5f d6                  	ret

00000000000000b4 __ZNSt3__1L4endlIcNS_11char_traitsIcEEEERNS_13basic_ostreamIT_T0_EES7_:
      b4: ff c3 00 d1                  	sub	sp, sp, #48
      b8: fd 7b 02 a9                  	stp	x29, x30, [sp, #32]
      bc: fd 83 00 91                  	add	x29, sp, #32
      c0: a0 83 1f f8                  	stur	x0, [x29, #-8]
      c4: a0 83 5f f8                  	ldur	x0, [x29, #-8]
      c8: a8 83 5f f8                  	ldur	x8, [x29, #-8]
      cc: 09 01 40 f9                  	ldr	x9, [x8]
      d0: 29 81 5e f8                  	ldur	x9, [x9, #-24]
      d4: 08 01 09 8b                  	add	x8, x8, x9
      d8: e0 0b 00 f9                  	str	x0, [sp, #16]
      dc: e0 03 08 aa                  	mov	x0, x8
      e0: 4a 01 80 52                  	mov	w10, #10
      e4: 41 1d 00 13                  	sxtb	w1, w10
      e8: 00 00 00 94                  	bl	#0 <__ZNSt3__1L4endlIcNS_11char_traitsIcEEEERNS_13basic_ostreamIT_T0_EES7_+0x34>
      ec: e8 0b 40 f9                  	ldr	x8, [sp, #16]
      f0: e0 0f 00 b9                  	str	w0, [sp, #12]
      f4: e0 03 08 aa                  	mov	x0, x8
      f8: e1 0f 40 b9                  	ldr	w1, [sp, #12]
      fc: 2a 1c 08 53                  	lsl	w10, w1, #24
     100: 41 7d 18 13                  	asr	w1, w10, #24
     104: 00 00 00 94                  	bl	#0 <__ZNSt3__1L4endlIcNS_11char_traitsIcEEEERNS_13basic_ostreamIT_T0_EES7_+0x50>
     108: a8 83 5f f8                  	ldur	x8, [x29, #-8]
     10c: e0 03 08 aa                  	mov	x0, x8
     110: 00 00 00 94                  	bl	#0 <__ZNSt3__1L4endlIcNS_11char_traitsIcEEEERNS_13basic_ostreamIT_T0_EES7_+0x5c>
     114: a8 83 5f f8                  	ldur	x8, [x29, #-8]
     118: e0 03 08 aa                  	mov	x0, x8
     11c: fd 7b 42 a9                  	ldp	x29, x30, [sp, #32]
     120: ff c3 00 91                  	add	sp, sp, #48
     124: c0 03 5f d6                  	ret

0000000000000128 __ZNSt3__124__put_character_sequenceIcNS_11char_traitsIcEEEERNS_13basic_ostreamIT_T0_EES7_PKS4_m:
     128: ff 83 02 d1                  	sub	sp, sp, #160
     12c: fd 7b 09 a9                  	stp	x29, x30, [sp, #144]
     130: fd 43 02 91                  	add	x29, sp, #144
     134: a0 83 1f f8                  	stur	x0, [x29, #-8]
     138: a1 03 1f f8                  	stur	x1, [x29, #-16]
     13c: a2 83 1e f8                  	stur	x2, [x29, #-24]
     140: a1 83 5f f8                  	ldur	x1, [x29, #-8]
     144: a0 a3 00 d1                  	sub	x0, x29, #40
     148: 00 00 00 94                  	bl	#0 <__ZNSt3__124__put_character_sequenceIcNS_11char_traitsIcEEEERNS_13basic_ostreamIT_T0_EES7_PKS4_m+0x20>
     14c: 01 00 00 14                  	b	#4 <__ZNSt3__124__put_character_sequenceIcNS_11char_traitsIcEEEERNS_13basic_ostreamIT_T0_EES7_PKS4_m+0x28>
     150: a0 a3 00 d1                  	sub	x0, x29, #40
     154: 00 00 00 94                  	bl	#0 <__ZNSt3__124__put_character_sequenceIcNS_11char_traitsIcEEEERNS_13basic_ostreamIT_T0_EES7_PKS4_m+0x2c>
     158: e0 47 00 b9                  	str	w0, [sp, #68]
     15c: 01 00 00 14                  	b	#4 <__ZNSt3__124__put_character_sequenceIcNS_11char_traitsIcEEEERNS_13basic_ostreamIT_T0_EES7_PKS4_m+0x38>
     160: e8 47 40 b9                  	ldr	w8, [sp, #68]
     164: 48 00 00 37                  	tbnz	w8, #0, #8 <__ZNSt3__124__put_character_sequenceIcNS_11char_traitsIcEEEERNS_13basic_ostreamIT_T0_EES7_PKS4_m+0x44>
     168: 4e 00 00 14                  	b	#312 <__ZNSt3__124__put_character_sequenceIcNS_11char_traitsIcEEEERNS_13basic_ostreamIT_T0_EES7_PKS4_m+0x178>
     16c: a1 83 5f f8                  	ldur	x1, [x29, #-8]
     170: e0 23 01 91                  	add	x0, sp, #72
     174: 00 00 00 94                  	bl	#0 <__ZNSt3__124__put_character_sequenceIcNS_11char_traitsIcEEEERNS_13basic_ostreamIT_T0_EES7_PKS4_m+0x4c>
     178: a1 03 5f f8                  	ldur	x1, [x29, #-16]
     17c: a8 83 5f f8                  	ldur	x8, [x29, #-8]
     180: 09 01 40 f9                  	ldr	x9, [x8]
     184: 29 81 5e f8                  	ldur	x9, [x9, #-24]
     188: 08 01 09 8b                  	add	x8, x8, x9
     18c: e0 03 08 aa                  	mov	x0, x8
     190: e1 1f 00 f9                  	str	x1, [sp, #56]
     194: 00 00 00 94                  	bl	#0 <__ZNSt3__124__put_character_sequenceIcNS_11char_traitsIcEEEERNS_13basic_ostreamIT_T0_EES7_PKS4_m+0x6c>
     198: e0 37 00 b9                  	str	w0, [sp, #52]
     19c: 01 00 00 14                  	b	#4 <__ZNSt3__124__put_character_sequenceIcNS_11char_traitsIcEEEERNS_13basic_ostreamIT_T0_EES7_PKS4_m+0x78>
     1a0: 08 16 80 52                  	mov	w8, #176
     1a4: e9 37 40 b9                  	ldr	w9, [sp, #52]
     1a8: 28 01 08 0a                  	and	w8, w9, w8
     1ac: 1f 81 00 71                  	cmp	w8, #32
     1b0: c1 00 00 54                  	b.ne	#24 <__ZNSt3__124__put_character_sequenceIcNS_11char_traitsIcEEEERNS_13basic_ostreamIT_T0_EES7_PKS4_m+0xa0>
     1b4: a8 03 5f f8                  	ldur	x8, [x29, #-16]
     1b8: a9 83 5e f8                  	ldur	x9, [x29, #-24]
     1bc: 08 01 09 8b                  	add	x8, x8, x9
     1c0: e8 17 00 f9                  	str	x8, [sp, #40]
     1c4: 03 00 00 14                  	b	#12 <__ZNSt3__124__put_character_sequenceIcNS_11char_traitsIcEEEERNS_13basic_ostreamIT_T0_EES7_PKS4_m+0xa8>
     1c8: a8 03 5f f8                  	ldur	x8, [x29, #-16]
     1cc: e8 17 00 f9                  	str	x8, [sp, #40]
     1d0: e8 17 40 f9                  	ldr	x8, [sp, #40]
     1d4: a9 03 5f f8                  	ldur	x9, [x29, #-16]
     1d8: aa 83 5e f8                  	ldur	x10, [x29, #-24]
     1dc: 23 01 0a 8b                  	add	x3, x9, x10
     1e0: a9 83 5f f8                  	ldur	x9, [x29, #-8]
     1e4: 2a 01 40 f9                  	ldr	x10, [x9]
     1e8: 4a 81 5e f8                  	ldur	x10, [x10, #-24]
     1ec: 24 01 0a 8b                  	add	x4, x9, x10
     1f0: a9 83 5f f8                  	ldur	x9, [x29, #-8]
     1f4: 2a 01 40 f9                  	ldr	x10, [x9]
     1f8: 4a 81 5e f8                  	ldur	x10, [x10, #-24]
     1fc: 20 01 0a 8b                  	add	x0, x9, x10
     200: e8 13 00 f9                  	str	x8, [sp, #32]
     204: e3 0f 00 f9                  	str	x3, [sp, #24]
     208: e4 0b 00 f9                  	str	x4, [sp, #16]
     20c: 00 00 00 94                  	bl	#0 <__ZNSt3__124__put_character_sequenceIcNS_11char_traitsIcEEEERNS_13basic_ostreamIT_T0_EES7_PKS4_m+0xe4>
     210: e0 0f 00 b9                  	str	w0, [sp, #12]
     214: 01 00 00 14                  	b	#4 <__ZNSt3__124__put_character_sequenceIcNS_11char_traitsIcEEEERNS_13basic_ostreamIT_T0_EES7_PKS4_m+0xf0>
     218: e0 27 40 f9                  	ldr	x0, [sp, #72]
     21c: e1 1f 40 f9                  	ldr	x1, [sp, #56]
     220: e2 13 40 f9                  	ldr	x2, [sp, #32]
     224: e3 0f 40 f9                  	ldr	x3, [sp, #24]
     228: e4 0b 40 f9                  	ldr	x4, [sp, #16]
     22c: e5 0f 40 b9                  	ldr	w5, [sp, #12]
     230: a8 1c 08 53                  	lsl	w8, w5, #24
     234: 05 7d 18 13                  	asr	w5, w8, #24
     238: 00 00 00 94                  	bl	#0 <__ZNSt3__124__put_character_sequenceIcNS_11char_traitsIcEEEERNS_13basic_ostreamIT_T0_EES7_PKS4_m+0x110>
     23c: e0 03 00 f9                  	str	x0, [sp]
     240: 01 00 00 14                  	b	#4 <__ZNSt3__124__put_character_sequenceIcNS_11char_traitsIcEEEERNS_13basic_ostreamIT_T0_EES7_PKS4_m+0x11c>
     244: e0 03 40 f9                  	ldr	x0, [sp]
     248: a8 03 01 d1                  	sub	x8, x29, #64
     24c: a0 03 1c f8                  	stur	x0, [x29, #-64]
     250: e0 03 08 aa                  	mov	x0, x8
     254: 00 00 00 94                  	bl	#0 <__ZNSt3__124__put_character_sequenceIcNS_11char_traitsIcEEEERNS_13basic_ostreamIT_T0_EES7_PKS4_m+0x12c>
     258: 40 00 00 37                  	tbnz	w0, #0, #8 <__ZNSt3__124__put_character_sequenceIcNS_11char_traitsIcEEEERNS_13basic_ostreamIT_T0_EES7_PKS4_m+0x138>
     25c: 11 00 00 14                  	b	#68 <__ZNSt3__124__put_character_sequenceIcNS_11char_traitsIcEEEERNS_13basic_ostreamIT_T0_EES7_PKS4_m+0x178>
     260: a8 83 5f f8                  	ldur	x8, [x29, #-8]
     264: 09 01 40 f9                  	ldr	x9, [x8]
     268: 29 81 5e f8                  	ldur	x9, [x9, #-24]
     26c: 00 01 09 8b                  	add	x0, x8, x9
     270: a1 00 80 52                  	mov	w1, #5
     274: 00 00 00 94                  	bl	#0 <__ZNSt3__124__put_character_sequenceIcNS_11char_traitsIcEEEERNS_13basic_ostreamIT_T0_EES7_PKS4_m+0x14c>
     278: 01 00 00 14                  	b	#4 <__ZNSt3__124__put_character_sequenceIcNS_11char_traitsIcEEEERNS_13basic_ostreamIT_T0_EES7_PKS4_m+0x154>
     27c: 09 00 00 14                  	b	#36 <__ZNSt3__124__put_character_sequenceIcNS_11char_traitsIcEEEERNS_13basic_ostreamIT_T0_EES7_PKS4_m+0x178>
     280: a0 03 1d f8                  	stur	x0, [x29, #-48]
     284: a1 c3 1c b8                  	stur	w1, [x29, #-52]
     288: 0a 00 00 14                  	b	#40 <__ZNSt3__124__put_character_sequenceIcNS_11char_traitsIcEEEERNS_13basic_ostreamIT_T0_EES7_PKS4_m+0x188>
     28c: a0 03 1d f8                  	stur	x0, [x29, #-48]
     290: a1 c3 1c b8                  	stur	w1, [x29, #-52]
     294: a0 a3 00 d1                  	sub	x0, x29, #40
     298: 00 00 00 94                  	bl	#0 <__ZNSt3__124__put_character_sequenceIcNS_11char_traitsIcEEEERNS_13basic_ostreamIT_T0_EES7_PKS4_m+0x170>
     29c: 05 00 00 14                  	b	#20 <__ZNSt3__124__put_character_sequenceIcNS_11char_traitsIcEEEERNS_13basic_ostreamIT_T0_EES7_PKS4_m+0x188>
     2a0: a0 a3 00 d1                  	sub	x0, x29, #40
     2a4: 00 00 00 94                  	bl	#0 <__ZNSt3__124__put_character_sequenceIcNS_11char_traitsIcEEEERNS_13basic_ostreamIT_T0_EES7_PKS4_m+0x17c>
     2a8: 01 00 00 14                  	b	#4 <__ZNSt3__124__put_character_sequenceIcNS_11char_traitsIcEEEERNS_13basic_ostreamIT_T0_EES7_PKS4_m+0x184>
     2ac: 0b 00 00 14                  	b	#44 <__ZNSt3__124__put_character_sequenceIcNS_11char_traitsIcEEEERNS_13basic_ostreamIT_T0_EES7_PKS4_m+0x1b0>
     2b0: a0 03 5d f8                  	ldur	x0, [x29, #-48]
     2b4: 00 00 00 94                  	bl	#0 <__ZNSt3__124__put_character_sequenceIcNS_11char_traitsIcEEEERNS_13basic_ostreamIT_T0_EES7_PKS4_m+0x18c>
     2b8: a8 83 5f f8                  	ldur	x8, [x29, #-8]
     2bc: 09 01 40 f9                  	ldr	x9, [x8]
     2c0: 29 81 5e f8                  	ldur	x9, [x9, #-24]
     2c4: 08 01 09 8b                  	add	x8, x8, x9
     2c8: e0 03 08 aa                  	mov	x0, x8
     2cc: 00 00 00 94                  	bl	#0 <__ZNSt3__124__put_character_sequenceIcNS_11char_traitsIcEEEERNS_13basic_ostreamIT_T0_EES7_PKS4_m+0x1a4>
     2d0: 01 00 00 14                  	b	#4 <__ZNSt3__124__put_character_sequenceIcNS_11char_traitsIcEEEERNS_13basic_ostreamIT_T0_EES7_PKS4_m+0x1ac>
     2d4: 00 00 00 94                  	bl	#0 <__ZNSt3__124__put_character_sequenceIcNS_11char_traitsIcEEEERNS_13basic_ostreamIT_T0_EES7_PKS4_m+0x1ac>
     2d8: a0 83 5f f8                  	ldur	x0, [x29, #-8]
     2dc: fd 7b 49 a9                  	ldp	x29, x30, [sp, #144]
     2e0: ff 83 02 91                  	add	sp, sp, #160
     2e4: c0 03 5f d6                  	ret
     2e8: a0 03 1d f8                  	stur	x0, [x29, #-48]
     2ec: a1 c3 1c b8                  	stur	w1, [x29, #-52]
     2f0: 00 00 00 94                  	bl	#0 <__ZNSt3__124__put_character_sequenceIcNS_11char_traitsIcEEEERNS_13basic_ostreamIT_T0_EES7_PKS4_m+0x1c8>
     2f4: 01 00 00 14                  	b	#4 <__ZNSt3__124__put_character_sequenceIcNS_11char_traitsIcEEEERNS_13basic_ostreamIT_T0_EES7_PKS4_m+0x1d0>
     2f8: a0 03 5d f8                  	ldur	x0, [x29, #-48]
     2fc: 00 00 00 94                  	bl	#0 <__ZNSt3__124__put_character_sequenceIcNS_11char_traitsIcEEEERNS_13basic_ostreamIT_T0_EES7_PKS4_m+0x1d4>
     300: 00 00 00 94                  	bl	#0 <__ZNSt3__124__put_character_sequenceIcNS_11char_traitsIcEEEERNS_13basic_ostreamIT_T0_EES7_PKS4_m+0x1d8>

0000000000000304 __ZNSt3__111char_traitsIcE6lengthEPKc:
     304: ff 83 00 d1                  	sub	sp, sp, #32
     308: fd 7b 01 a9                  	stp	x29, x30, [sp, #16]
     30c: fd 43 00 91                  	add	x29, sp, #16
     310: e0 07 00 f9                  	str	x0, [sp, #8]
     314: e0 07 40 f9                  	ldr	x0, [sp, #8]
     318: 00 00 00 94                  	bl	#0 <__ZNSt3__111char_traitsIcE6lengthEPKc+0x14>
     31c: fd 7b 41 a9                  	ldp	x29, x30, [sp, #16]
     320: ff 83 00 91                  	add	sp, sp, #32
     324: c0 03 5f d6                  	ret

0000000000000328 __ZNKSt3__113basic_ostreamIcNS_11char_traitsIcEEE6sentrycvbEv:
     328: ff 43 00 d1                  	sub	sp, sp, #16
     32c: e0 07 00 f9                  	str	x0, [sp, #8]
     330: e8 07 40 f9                  	ldr	x8, [sp, #8]
     334: 09 01 40 39                  	ldrb	w9, [x8]
     338: 29 01 00 12                  	and	w9, w9, #0x1
     33c: 20 1d 00 12                  	and	w0, w9, #0xff
     340: ff 43 00 91                  	add	sp, sp, #16
     344: c0 03 5f d6                  	ret

0000000000000348 __ZNSt3__116__pad_and_outputIcNS_11char_traitsIcEEEENS_19ostreambuf_iteratorIT_T0_EES6_PKS4_S8_S8_RNS_8ios_baseES4_:
     348: ff c3 03 d1                  	sub	sp, sp, #240
     34c: fd 7b 0e a9                  	stp	x29, x30, [sp, #224]
     350: fd 83 03 91                  	add	x29, sp, #224
     354: a0 03 1f f8                  	stur	x0, [x29, #-16]
     358: a1 83 1e f8                  	stur	x1, [x29, #-24]
     35c: a2 03 1e f8                  	stur	x2, [x29, #-32]
     360: a3 83 1d f8                  	stur	x3, [x29, #-40]
     364: a4 03 1d f8                  	stur	x4, [x29, #-48]
     368: a5 f3 1c 38                  	sturb	w5, [x29, #-49]
     36c: a8 03 5f f8                  	ldur	x8, [x29, #-16]
     370: e8 1f 00 f9                  	str	x8, [sp, #56]
     374: 00 00 00 94                  	bl	#0 <__ZNSt3__116__pad_and_outputIcNS_11char_traitsIcEEEENS_19ostreambuf_iteratorIT_T0_EES6_PKS4_S8_S8_RNS_8ios_baseES4_+0x2c>
     378: a8 03 01 d1                  	sub	x8, x29, #64
     37c: a0 03 1c f8                  	stur	x0, [x29, #-64]
     380: e0 03 08 aa                  	mov	x0, x8
     384: 00 00 00 94                  	bl	#0 <__ZNSt3__116__pad_and_outputIcNS_11char_traitsIcEEEENS_19ostreambuf_iteratorIT_T0_EES6_PKS4_S8_S8_RNS_8ios_baseES4_+0x3c>
     388: e8 1f 40 f9                  	ldr	x8, [sp, #56]
     38c: 1f 01 00 eb                  	cmp	x8, x0
     390: 81 00 00 54                  	b.ne	#16 <__ZNSt3__116__pad_and_outputIcNS_11char_traitsIcEEEENS_19ostreambuf_iteratorIT_T0_EES6_PKS4_S8_S8_RNS_8ios_baseES4_+0x58>
     394: a8 03 5f f8                  	ldur	x8, [x29, #-16]
     398: a8 83 1f f8                  	stur	x8, [x29, #-8]
     39c: 82 00 00 14                  	b	#520 <__ZNSt3__116__pad_and_outputIcNS_11char_traitsIcEEEENS_19ostreambuf_iteratorIT_T0_EES6_PKS4_S8_S8_RNS_8ios_baseES4_+0x25c>
     3a0: a8 83 5d f8                  	ldur	x8, [x29, #-40]
     3a4: a9 83 5e f8                  	ldur	x9, [x29, #-24]
     3a8: 08 01 09 eb                  	subs	x8, x8, x9
     3ac: a8 83 1b f8                  	stur	x8, [x29, #-72]
     3b0: a0 03 5d f8                  	ldur	x0, [x29, #-48]
     3b4: 00 00 00 94                  	bl	#0 <__ZNSt3__116__pad_and_outputIcNS_11char_traitsIcEEEENS_19ostreambuf_iteratorIT_T0_EES6_PKS4_S8_S8_RNS_8ios_baseES4_+0x6c>
     3b8: a0 03 1b f8                  	stur	x0, [x29, #-80]
     3bc: a8 03 5b f8                  	ldur	x8, [x29, #-80]
     3c0: a9 83 5b f8                  	ldur	x9, [x29, #-72]
     3c4: 1f 01 09 eb                  	cmp	x8, x9
     3c8: cd 00 00 54                  	b.le	#24 <__ZNSt3__116__pad_and_outputIcNS_11char_traitsIcEEEENS_19ostreambuf_iteratorIT_T0_EES6_PKS4_S8_S8_RNS_8ios_baseES4_+0x98>
     3cc: a8 83 5b f8                  	ldur	x8, [x29, #-72]
     3d0: a9 03 5b f8                  	ldur	x9, [x29, #-80]
     3d4: 28 01 08 eb                  	subs	x8, x9, x8
     3d8: a8 03 1b f8                  	stur	x8, [x29, #-80]
     3dc: 02 00 00 14                  	b	#8 <__ZNSt3__116__pad_and_outputIcNS_11char_traitsIcEEEENS_19ostreambuf_iteratorIT_T0_EES6_PKS4_S8_S8_RNS_8ios_baseES4_+0x9c>
     3e0: bf 03 1b f8                  	stur	xzr, [x29, #-80]
     3e4: a8 03 5e f8                  	ldur	x8, [x29, #-32]
     3e8: a9 83 5e f8                  	ldur	x9, [x29, #-24]
     3ec: 08 01 09 eb                  	subs	x8, x8, x9
     3f0: a8 83 1a f8                  	stur	x8, [x29, #-88]
     3f4: a8 83 5a f8                  	ldur	x8, [x29, #-88]
     3f8: 1f 01 00 f1                  	cmp	x8, #0
     3fc: ea c7 9f 1a                  	cset	w10, le
     400: 2a 02 00 37                  	tbnz	w10, #0, #68 <__ZNSt3__116__pad_and_outputIcNS_11char_traitsIcEEEENS_19ostreambuf_iteratorIT_T0_EES6_PKS4_S8_S8_RNS_8ios_baseES4_+0xfc>
     404: a0 03 5f f8                  	ldur	x0, [x29, #-16]
     408: a1 83 5e f8                  	ldur	x1, [x29, #-24]
     40c: a2 83 5a f8                  	ldur	x2, [x29, #-88]
     410: 00 00 00 94                  	bl	#0 <__ZNSt3__116__pad_and_outputIcNS_11char_traitsIcEEEENS_19ostreambuf_iteratorIT_T0_EES6_PKS4_S8_S8_RNS_8ios_baseES4_+0xc8>
     414: a8 83 5a f8                  	ldur	x8, [x29, #-88]
     418: 1f 00 08 eb                  	cmp	x0, x8
     41c: 40 01 00 54                  	b.eq	#40 <__ZNSt3__116__pad_and_outputIcNS_11char_traitsIcEEEENS_19ostreambuf_iteratorIT_T0_EES6_PKS4_S8_S8_RNS_8ios_baseES4_+0xfc>
     420: 00 00 00 94                  	bl	#0 <__ZNSt3__116__pad_and_outputIcNS_11char_traitsIcEEEENS_19ostreambuf_iteratorIT_T0_EES6_PKS4_S8_S8_RNS_8ios_baseES4_+0xd8>
     424: a8 83 01 d1                  	sub	x8, x29, #96
     428: a0 03 1a f8                  	stur	x0, [x29, #-96]
     42c: e0 03 08 aa                  	mov	x0, x8
     430: 00 00 00 94                  	bl	#0 <__ZNSt3__116__pad_and_outputIcNS_11char_traitsIcEEEENS_19ostreambuf_iteratorIT_T0_EES6_PKS4_S8_S8_RNS_8ios_baseES4_+0xe8>
     434: a0 03 1f f8                  	stur	x0, [x29, #-16]
     438: a8 03 5f f8                  	ldur	x8, [x29, #-16]
     43c: a8 83 1f f8                  	stur	x8, [x29, #-8]
     440: 59 00 00 14                  	b	#356 <__ZNSt3__116__pad_and_outputIcNS_11char_traitsIcEEEENS_19ostreambuf_iteratorIT_T0_EES6_PKS4_S8_S8_RNS_8ios_baseES4_+0x25c>
     444: a8 03 5b f8                  	ldur	x8, [x29, #-80]
     448: 1f 01 00 f1                  	cmp	x8, #0
     44c: e9 c7 9f 1a                  	cset	w9, le
     450: e9 06 00 37                  	tbnz	w9, #0, #220 <__ZNSt3__116__pad_and_outputIcNS_11char_traitsIcEEEENS_19ostreambuf_iteratorIT_T0_EES6_PKS4_S8_S8_RNS_8ios_baseES4_+0x1e4>
     454: a1 03 5b f8                  	ldur	x1, [x29, #-80]
     458: a2 f3 dc 38                  	ldursb	w2, [x29, #-49]
     45c: e8 a3 01 91                  	add	x8, sp, #104
     460: e0 03 08 aa                  	mov	x0, x8
     464: e8 1b 00 f9                  	str	x8, [sp, #48]
     468: 00 00 00 94                  	bl	#0 <__ZNSt3__116__pad_and_outputIcNS_11char_traitsIcEEEENS_19ostreambuf_iteratorIT_T0_EES6_PKS4_S8_S8_RNS_8ios_baseES4_+0x120>
     46c: a8 03 5f f8                  	ldur	x8, [x29, #-16]
     470: e9 1b 40 f9                  	ldr	x9, [sp, #48]
     474: e0 03 09 aa                  	mov	x0, x9
     478: e8 17 00 f9                  	str	x8, [sp, #40]
     47c: 00 00 00 94                  	bl	#0 <__ZNSt3__116__pad_and_outputIcNS_11char_traitsIcEEEENS_19ostreambuf_iteratorIT_T0_EES6_PKS4_S8_S8_RNS_8ios_baseES4_+0x134>
     480: a2 03 5b f8                  	ldur	x2, [x29, #-80]
     484: e8 17 40 f9                  	ldr	x8, [sp, #40]
     488: e0 13 00 f9                  	str	x0, [sp, #32]
     48c: e0 03 08 aa                  	mov	x0, x8
     490: e1 13 40 f9                  	ldr	x1, [sp, #32]
     494: 00 00 00 94                  	bl	#0 <__ZNSt3__116__pad_and_outputIcNS_11char_traitsIcEEEENS_19ostreambuf_iteratorIT_T0_EES6_PKS4_S8_S8_RNS_8ios_baseES4_+0x14c>
     498: e0 0f 00 f9                  	str	x0, [sp, #24]
     49c: 01 00 00 14                  	b	#4 <__ZNSt3__116__pad_and_outputIcNS_11char_traitsIcEEEENS_19ostreambuf_iteratorIT_T0_EES6_PKS4_S8_S8_RNS_8ios_baseES4_+0x158>
     4a0: a8 03 5b f8                  	ldur	x8, [x29, #-80]
     4a4: e9 0f 40 f9                  	ldr	x9, [sp, #24]
     4a8: 3f 01 08 eb                  	cmp	x9, x8
     4ac: e0 02 00 54                  	b.eq	#92 <__ZNSt3__116__pad_and_outputIcNS_11char_traitsIcEEEENS_19ostreambuf_iteratorIT_T0_EES6_PKS4_S8_S8_RNS_8ios_baseES4_+0x1c0>
     4b0: 00 00 00 94                  	bl	#0 <__ZNSt3__116__pad_and_outputIcNS_11char_traitsIcEEEENS_19ostreambuf_iteratorIT_T0_EES6_PKS4_S8_S8_RNS_8ios_baseES4_+0x168>
     4b4: e0 0b 00 f9                  	str	x0, [sp, #16]
     4b8: 01 00 00 14                  	b	#4 <__ZNSt3__116__pad_and_outputIcNS_11char_traitsIcEEEENS_19ostreambuf_iteratorIT_T0_EES6_PKS4_S8_S8_RNS_8ios_baseES4_+0x174>
     4bc: e0 0b 40 f9                  	ldr	x0, [sp, #16]
     4c0: e8 43 01 91                  	add	x8, sp, #80
     4c4: e0 2b 00 f9                  	str	x0, [sp, #80]
     4c8: e0 03 08 aa                  	mov	x0, x8
     4cc: 00 00 00 94                  	bl	#0 <__ZNSt3__116__pad_and_outputIcNS_11char_traitsIcEEEENS_19ostreambuf_iteratorIT_T0_EES6_PKS4_S8_S8_RNS_8ios_baseES4_+0x184>
     4d0: e0 07 00 f9                  	str	x0, [sp, #8]
     4d4: 01 00 00 14                  	b	#4 <__ZNSt3__116__pad_and_outputIcNS_11char_traitsIcEEEENS_19ostreambuf_iteratorIT_T0_EES6_PKS4_S8_S8_RNS_8ios_baseES4_+0x190>
     4d8: e8 07 40 f9                  	ldr	x8, [sp, #8]
     4dc: a8 03 1f f8                  	stur	x8, [x29, #-16]
     4e0: a9 03 5f f8                  	ldur	x9, [x29, #-16]
     4e4: a9 83 1f f8                  	stur	x9, [x29, #-8]
     4e8: 2a 00 80 52                  	mov	w10, #1
     4ec: ea 4f 00 b9                  	str	w10, [sp, #76]
     4f0: 07 00 00 14                  	b	#28 <__ZNSt3__116__pad_and_outputIcNS_11char_traitsIcEEEENS_19ostreambuf_iteratorIT_T0_EES6_PKS4_S8_S8_RNS_8ios_baseES4_+0x1c4>
     4f4: e0 33 00 f9                  	str	x0, [sp, #96]
     4f8: e1 5f 00 b9                  	str	w1, [sp, #92]
     4fc: e0 a3 01 91                  	add	x0, sp, #104
     500: 00 00 00 94                  	bl	#0 <__ZNSt3__116__pad_and_outputIcNS_11char_traitsIcEEEENS_19ostreambuf_iteratorIT_T0_EES6_PKS4_S8_S8_RNS_8ios_baseES4_+0x1b8>
     504: 09 00 00 14                  	b	#36 <__ZNSt3__116__pad_and_outputIcNS_11char_traitsIcEEEENS_19ostreambuf_iteratorIT_T0_EES6_PKS4_S8_S8_RNS_8ios_baseES4_+0x1e0>
     508: ff 4f 00 b9                  	str	wzr, [sp, #76]
     50c: e0 a3 01 91                  	add	x0, sp, #104
     510: 00 00 00 94                  	bl	#0 <__ZNSt3__116__pad_and_outputIcNS_11char_traitsIcEEEENS_19ostreambuf_iteratorIT_T0_EES6_PKS4_S8_S8_RNS_8ios_baseES4_+0x1c8>
     514: e8 4f 40 b9                  	ldr	w8, [sp, #76]
     518: 68 00 00 34                  	cbz	w8, #12 <__ZNSt3__116__pad_and_outputIcNS_11char_traitsIcEEEENS_19ostreambuf_iteratorIT_T0_EES6_PKS4_S8_S8_RNS_8ios_baseES4_+0x1dc>
     51c: 01 00 00 14                  	b	#4 <__ZNSt3__116__pad_and_outputIcNS_11char_traitsIcEEEENS_19ostreambuf_iteratorIT_T0_EES6_PKS4_S8_S8_RNS_8ios_baseES4_+0x1d8>
     520: 21 00 00 14                  	b	#132 <__ZNSt3__116__pad_and_outputIcNS_11char_traitsIcEEEENS_19ostreambuf_iteratorIT_T0_EES6_PKS4_S8_S8_RNS_8ios_baseES4_+0x25c>
     524: 02 00 00 14                  	b	#8 <__ZNSt3__116__pad_and_outputIcNS_11char_traitsIcEEEENS_19ostreambuf_iteratorIT_T0_EES6_PKS4_S8_S8_RNS_8ios_baseES4_+0x1e4>
     528: 23 00 00 14                  	b	#140 <__ZNSt3__116__pad_and_outputIcNS_11char_traitsIcEEEENS_19ostreambuf_iteratorIT_T0_EES6_PKS4_S8_S8_RNS_8ios_baseES4_+0x26c>
     52c: a8 83 5d f8                  	ldur	x8, [x29, #-40]
     530: a9 03 5e f8                  	ldur	x9, [x29, #-32]
     534: 08 01 09 eb                  	subs	x8, x8, x9
     538: a8 83 1a f8                  	stur	x8, [x29, #-88]
     53c: a8 83 5a f8                  	ldur	x8, [x29, #-88]
     540: 1f 01 00 f1                  	cmp	x8, #0
     544: ea c7 9f 1a                  	cset	w10, le
     548: 2a 02 00 37                  	tbnz	w10, #0, #68 <__ZNSt3__116__pad_and_outputIcNS_11char_traitsIcEEEENS_19ostreambuf_iteratorIT_T0_EES6_PKS4_S8_S8_RNS_8ios_baseES4_+0x244>
     54c: a0 03 5f f8                  	ldur	x0, [x29, #-16]
     550: a1 03 5e f8                  	ldur	x1, [x29, #-32]
     554: a2 83 5a f8                  	ldur	x2, [x29, #-88]
     558: 00 00 00 94                  	bl	#0 <__ZNSt3__116__pad_and_outputIcNS_11char_traitsIcEEEENS_19ostreambuf_iteratorIT_T0_EES6_PKS4_S8_S8_RNS_8ios_baseES4_+0x210>
     55c: a8 83 5a f8                  	ldur	x8, [x29, #-88]
     560: 1f 00 08 eb                  	cmp	x0, x8
     564: 40 01 00 54                  	b.eq	#40 <__ZNSt3__116__pad_and_outputIcNS_11char_traitsIcEEEENS_19ostreambuf_iteratorIT_T0_EES6_PKS4_S8_S8_RNS_8ios_baseES4_+0x244>
     568: 00 00 00 94                  	bl	#0 <__ZNSt3__116__pad_and_outputIcNS_11char_traitsIcEEEENS_19ostreambuf_iteratorIT_T0_EES6_PKS4_S8_S8_RNS_8ios_baseES4_+0x220>
     56c: e8 03 01 91                  	add	x8, sp, #64
     570: e0 23 00 f9                  	str	x0, [sp, #64]
     574: e0 03 08 aa                  	mov	x0, x8
     578: 00 00 00 94                  	bl	#0 <__ZNSt3__116__pad_and_outputIcNS_11char_traitsIcEEEENS_19ostreambuf_iteratorIT_T0_EES6_PKS4_S8_S8_RNS_8ios_baseES4_+0x230>
     57c: a0 03 1f f8                  	stur	x0, [x29, #-16]
     580: a8 03 5f f8                  	ldur	x8, [x29, #-16]
     584: a8 83 1f f8                  	stur	x8, [x29, #-8]
     588: 07 00 00 14                  	b	#28 <__ZNSt3__116__pad_and_outputIcNS_11char_traitsIcEEEENS_19ostreambuf_iteratorIT_T0_EES6_PKS4_S8_S8_RNS_8ios_baseES4_+0x25c>
     58c: a0 03 5d f8                  	ldur	x0, [x29, #-48]
     590: 08 00 80 d2                  	mov	x8, #0
     594: e1 03 08 aa                  	mov	x1, x8
     598: 00 00 00 94                  	bl	#0 <__ZNSt3__116__pad_and_outputIcNS_11char_traitsIcEEEENS_19ostreambuf_iteratorIT_T0_EES6_PKS4_S8_S8_RNS_8ios_baseES4_+0x250>
     59c: a8 03 5f f8                  	ldur	x8, [x29, #-16]
     5a0: a8 83 1f f8                  	stur	x8, [x29, #-8]
     5a4: a0 83 5f f8                  	ldur	x0, [x29, #-8]
     5a8: fd 7b 4e a9                  	ldp	x29, x30, [sp, #224]
     5ac: ff c3 03 91                  	add	sp, sp, #240
     5b0: c0 03 5f d6                  	ret
     5b4: e0 33 40 f9                  	ldr	x0, [sp, #96]
     5b8: 00 00 00 94                  	bl	#0 <__ZNSt3__116__pad_and_outputIcNS_11char_traitsIcEEEENS_19ostreambuf_iteratorIT_T0_EES6_PKS4_S8_S8_RNS_8ios_baseES4_+0x270>
     5bc: 00 00 00 94                  	bl	#0 <__ZNSt3__116__pad_and_outputIcNS_11char_traitsIcEEEENS_19ostreambuf_iteratorIT_T0_EES6_PKS4_S8_S8_RNS_8ios_baseES4_+0x274>

00000000000005c0 __ZNSt3__119ostreambuf_iteratorIcNS_11char_traitsIcEEEC1ERNS_13basic_ostreamIcS2_EE:
     5c0: ff c3 00 d1                  	sub	sp, sp, #48
     5c4: fd 7b 02 a9                  	stp	x29, x30, [sp, #32]
     5c8: fd 83 00 91                  	add	x29, sp, #32
     5cc: a0 83 1f f8                  	stur	x0, [x29, #-8]
     5d0: e1 0b 00 f9                  	str	x1, [sp, #16]
     5d4: a8 83 5f f8                  	ldur	x8, [x29, #-8]
     5d8: e1 0b 40 f9                  	ldr	x1, [sp, #16]
     5dc: e0 03 08 aa                  	mov	x0, x8
     5e0: e8 07 00 f9                  	str	x8, [sp, #8]
     5e4: 00 00 00 94                  	bl	#0 <__ZNSt3__119ostreambuf_iteratorIcNS_11char_traitsIcEEEC1ERNS_13basic_ostreamIcS2_EE+0x24>
     5e8: e8 07 40 f9                  	ldr	x8, [sp, #8]
     5ec: e0 03 08 aa                  	mov	x0, x8
     5f0: fd 7b 42 a9                  	ldp	x29, x30, [sp, #32]
     5f4: ff c3 00 91                  	add	sp, sp, #48
     5f8: c0 03 5f d6                  	ret

00000000000005fc __ZNKSt3__18ios_base5flagsEv:
     5fc: ff 43 00 d1                  	sub	sp, sp, #16
     600: e0 07 00 f9                  	str	x0, [sp, #8]
     604: e8 07 40 f9                  	ldr	x8, [sp, #8]
     608: 00 09 40 b9                  	ldr	w0, [x8, #8]
     60c: ff 43 00 91                  	add	sp, sp, #16
     610: c0 03 5f d6                  	ret

0000000000000614 __ZNKSt3__19basic_iosIcNS_11char_traitsIcEEE4fillEv:
     614: ff 83 00 d1                  	sub	sp, sp, #32
     618: fd 7b 01 a9                  	stp	x29, x30, [sp, #16]
     61c: fd 43 00 91                  	add	x29, sp, #16
     620: e0 07 00 f9                  	str	x0, [sp, #8]
     624: e8 07 40 f9                  	ldr	x8, [sp, #8]
     628: e8 03 00 f9                  	str	x8, [sp]
     62c: 00 00 00 94                  	bl	#0 <__ZNKSt3__19basic_iosIcNS_11char_traitsIcEEE4fillEv+0x18>
     630: e8 03 40 f9                  	ldr	x8, [sp]
     634: 01 91 40 b9                  	ldr	w1, [x8, #144]
     638: 00 00 00 94                  	bl	#0 <__ZNKSt3__19basic_iosIcNS_11char_traitsIcEEE4fillEv+0x24>
     63c: 40 00 00 37                  	tbnz	w0, #0, #8 <__ZNKSt3__19basic_iosIcNS_11char_traitsIcEEE4fillEv+0x30>
     640: 09 00 00 14                  	b	#36 <__ZNKSt3__19basic_iosIcNS_11char_traitsIcEEE4fillEv+0x50>
     644: e0 03 40 f9                  	ldr	x0, [sp]
     648: 08 04 80 52                  	mov	w8, #32
     64c: 01 1d 00 13                  	sxtb	w1, w8
     650: 00 00 00 94                  	bl	#0 <__ZNKSt3__19basic_iosIcNS_11char_traitsIcEEE4fillEv+0x3c>
     654: 08 1c 08 53                  	lsl	w8, w0, #24
     658: 08 7d 18 13                  	asr	w8, w8, #24
     65c: e9 03 40 f9                  	ldr	x9, [sp]
     660: 28 91 00 b9                  	str	w8, [x9, #144]
     664: e8 03 40 f9                  	ldr	x8, [sp]
     668: 09 91 40 b9                  	ldr	w9, [x8, #144]
     66c: 29 1d 08 53                  	lsl	w9, w9, #24
     670: 20 7d 18 13                  	asr	w0, w9, #24
     674: fd 7b 41 a9                  	ldp	x29, x30, [sp, #16]
     678: ff 83 00 91                  	add	sp, sp, #32
     67c: c0 03 5f d6                  	ret

0000000000000680 __ZNKSt3__119ostreambuf_iteratorIcNS_11char_traitsIcEEE6failedEv:
     680: ff 43 00 d1                  	sub	sp, sp, #16
     684: e0 07 00 f9                  	str	x0, [sp, #8]
     688: e8 07 40 f9                  	ldr	x8, [sp, #8]
     68c: 08 01 40 f9                  	ldr	x8, [x8]
     690: 1f 01 00 f1                  	cmp	x8, #0
     694: e9 17 9f 1a                  	cset	w9, eq
     698: 29 01 00 12                  	and	w9, w9, #0x1
     69c: 20 1d 00 12                  	and	w0, w9, #0xff
     6a0: ff 43 00 91                  	add	sp, sp, #16
     6a4: c0 03 5f d6                  	ret

00000000000006a8 __ZNSt3__19basic_iosIcNS_11char_traitsIcEEE8setstateEj:
     6a8: ff 83 00 d1                  	sub	sp, sp, #32
     6ac: fd 7b 01 a9                  	stp	x29, x30, [sp, #16]
     6b0: fd 43 00 91                  	add	x29, sp, #16
     6b4: e0 07 00 f9                  	str	x0, [sp, #8]
     6b8: e1 07 00 b9                  	str	w1, [sp, #4]
     6bc: e0 07 40 f9                  	ldr	x0, [sp, #8]
     6c0: e1 07 40 b9                  	ldr	w1, [sp, #4]
     6c4: 00 00 00 94                  	bl	#0 <__ZNSt3__19basic_iosIcNS_11char_traitsIcEEE8setstateEj+0x1c>
     6c8: fd 7b 41 a9                  	ldp	x29, x30, [sp, #16]
     6cc: ff 83 00 91                  	add	sp, sp, #32
     6d0: c0 03 5f d6                  	ret

00000000000006d4 ___clang_call_terminate:
     6d4: fd 7b bf a9                  	stp	x29, x30, [sp, #-16]!
     6d8: 00 00 00 94                  	bl	#0 <___clang_call_terminate+0x4>
     6dc: 00 00 00 94                  	bl	#0 <___clang_call_terminate+0x8>

00000000000006e0 __ZNSt3__1L15__get_nullptr_tEv:
     6e0: ff 83 00 d1                  	sub	sp, sp, #32
     6e4: fd 7b 01 a9                  	stp	x29, x30, [sp, #16]
     6e8: fd 43 00 91                  	add	x29, sp, #16
     6ec: e0 23 00 91                  	add	x0, sp, #8
     6f0: 01 00 80 92                  	mov	x1, #-1
     6f4: 00 00 00 94                  	bl	#0 <__ZNSt3__1L15__get_nullptr_tEv+0x14>
     6f8: e8 07 40 f9                  	ldr	x8, [sp, #8]
     6fc: e0 03 08 aa                  	mov	x0, x8
     700: fd 7b 41 a9                  	ldp	x29, x30, [sp, #16]
     704: ff 83 00 91                  	add	sp, sp, #32
     708: c0 03 5f d6                  	ret

000000000000070c __ZNKSt3__19nullptr_tcvPT_INS_15basic_streambufIcNS_11char_traitsIcEEEEEEv:
     70c: ff 43 00 d1                  	sub	sp, sp, #16
     710: e0 07 00 f9                  	str	x0, [sp, #8]
     714: 08 00 80 d2                  	mov	x8, #0
     718: e0 03 08 aa                  	mov	x0, x8
     71c: ff 43 00 91                  	add	sp, sp, #16
     720: c0 03 5f d6                  	ret

0000000000000724 __ZNKSt3__18ios_base5widthEv:
     724: ff 43 00 d1                  	sub	sp, sp, #16
     728: e0 07 00 f9                  	str	x0, [sp, #8]
     72c: e8 07 40 f9                  	ldr	x8, [sp, #8]
     730: 00 0d 40 f9                  	ldr	x0, [x8, #24]
     734: ff 43 00 91                  	add	sp, sp, #16
     738: c0 03 5f d6                  	ret

000000000000073c __ZNSt3__115basic_streambufIcNS_11char_traitsIcEEE5sputnEPKcl:
     73c: ff c3 00 d1                  	sub	sp, sp, #48
     740: fd 7b 02 a9                  	stp	x29, x30, [sp, #32]
     744: fd 83 00 91                  	add	x29, sp, #32
     748: a0 83 1f f8                  	stur	x0, [x29, #-8]
     74c: e1 0b 00 f9                  	str	x1, [sp, #16]
     750: e2 07 00 f9                  	str	x2, [sp, #8]
     754: a8 83 5f f8                  	ldur	x8, [x29, #-8]
     758: e1 0b 40 f9                  	ldr	x1, [sp, #16]
     75c: e2 07 40 f9                  	ldr	x2, [sp, #8]
     760: 09 01 40 f9                  	ldr	x9, [x8]
     764: 29 31 40 f9                  	ldr	x9, [x9, #96]
     768: e0 03 08 aa                  	mov	x0, x8
     76c: 20 01 3f d6                  	blr	x9
     770: fd 7b 42 a9                  	ldp	x29, x30, [sp, #32]
     774: ff c3 00 91                  	add	sp, sp, #48
     778: c0 03 5f d6                  	ret

000000000000077c __ZNSt3__112basic_stringIcNS_11char_traitsIcEENS_9allocatorIcEEEC1Emc:
     77c: ff c3 00 d1                  	sub	sp, sp, #48
     780: fd 7b 02 a9                  	stp	x29, x30, [sp, #32]
     784: fd 83 00 91                  	add	x29, sp, #32
     788: a0 83 1f f8                  	stur	x0, [x29, #-8]
     78c: e1 0b 00 f9                  	str	x1, [sp, #16]
     790: e2 3f 00 39                  	strb	w2, [sp, #15]
     794: a8 83 5f f8                  	ldur	x8, [x29, #-8]
     798: e1 0b 40 f9                  	ldr	x1, [sp, #16]
     79c: e2 3f c0 39                  	ldrsb	w2, [sp, #15]
     7a0: e0 03 08 aa                  	mov	x0, x8
     7a4: e8 03 00 f9                  	str	x8, [sp]
     7a8: 00 00 00 94                  	bl	#0 <__ZNSt3__112basic_stringIcNS_11char_traitsIcEENS_9allocatorIcEEEC1Emc+0x2c>
     7ac: e8 03 40 f9                  	ldr	x8, [sp]
     7b0: e0 03 08 aa                  	mov	x0, x8
     7b4: fd 7b 42 a9                  	ldp	x29, x30, [sp, #32]
     7b8: ff c3 00 91                  	add	sp, sp, #48
     7bc: c0 03 5f d6                  	ret

00000000000007c0 __ZNKSt3__112basic_stringIcNS_11char_traitsIcEENS_9allocatorIcEEE4dataEv:
     7c0: ff 83 00 d1                  	sub	sp, sp, #32
     7c4: fd 7b 01 a9                  	stp	x29, x30, [sp, #16]
     7c8: fd 43 00 91                  	add	x29, sp, #16
     7cc: e0 07 00 f9                  	str	x0, [sp, #8]
     7d0: e0 07 40 f9                  	ldr	x0, [sp, #8]
     7d4: 00 00 00 94                  	bl	#0 <__ZNKSt3__112basic_stringIcNS_11char_traitsIcEENS_9allocatorIcEEE4dataEv+0x14>
     7d8: 00 00 00 94                  	bl	#0 <__ZNKSt3__112basic_stringIcNS_11char_traitsIcEENS_9allocatorIcEEE4dataEv+0x18>
     7dc: fd 7b 41 a9                  	ldp	x29, x30, [sp, #16]
     7e0: ff 83 00 91                  	add	sp, sp, #32
     7e4: c0 03 5f d6                  	ret

00000000000007e8 __ZNSt3__18ios_base5widthEl:
     7e8: ff 83 00 d1                  	sub	sp, sp, #32
     7ec: e0 0f 00 f9                  	str	x0, [sp, #24]
     7f0: e1 0b 00 f9                  	str	x1, [sp, #16]
     7f4: e8 0f 40 f9                  	ldr	x8, [sp, #24]
     7f8: 09 0d 40 f9                  	ldr	x9, [x8, #24]
     7fc: e9 07 00 f9                  	str	x9, [sp, #8]
     800: e9 0b 40 f9                  	ldr	x9, [sp, #16]
     804: 09 0d 00 f9                  	str	x9, [x8, #24]
     808: e0 07 40 f9                  	ldr	x0, [sp, #8]
     80c: ff 83 00 91                  	add	sp, sp, #32
     810: c0 03 5f d6                  	ret

0000000000000814 __ZNSt3__19nullptr_tC1EMNS0_5__natEi:
     814: ff c3 00 d1                  	sub	sp, sp, #48
     818: fd 7b 02 a9                  	stp	x29, x30, [sp, #32]
     81c: fd 83 00 91                  	add	x29, sp, #32
     820: a0 83 1f f8                  	stur	x0, [x29, #-8]
     824: e1 0b 00 f9                  	str	x1, [sp, #16]
     828: a8 83 5f f8                  	ldur	x8, [x29, #-8]
     82c: e1 0b 40 f9                  	ldr	x1, [sp, #16]
     830: e0 03 08 aa                  	mov	x0, x8
     834: e8 07 00 f9                  	str	x8, [sp, #8]
     838: 00 00 00 94                  	bl	#0 <__ZNSt3__19nullptr_tC1EMNS0_5__natEi+0x24>
     83c: e8 07 40 f9                  	ldr	x8, [sp, #8]
     840: e0 03 08 aa                  	mov	x0, x8
     844: fd 7b 42 a9                  	ldp	x29, x30, [sp, #32]
     848: ff c3 00 91                  	add	sp, sp, #48
     84c: c0 03 5f d6                  	ret

0000000000000850 __ZNSt3__19nullptr_tC2EMNS0_5__natEi:
     850: ff 43 00 d1                  	sub	sp, sp, #16
     854: e0 07 00 f9                  	str	x0, [sp, #8]
     858: e1 03 00 f9                  	str	x1, [sp]
     85c: e8 07 40 f9                  	ldr	x8, [sp, #8]
     860: 09 00 80 d2                  	mov	x9, #0
     864: 09 01 00 f9                  	str	x9, [x8]
     868: e0 03 08 aa                  	mov	x0, x8
     86c: ff 43 00 91                  	add	sp, sp, #16
     870: c0 03 5f d6                  	ret

0000000000000874 __ZNSt3__112basic_stringIcNS_11char_traitsIcEENS_9allocatorIcEEEC2Emc:
     874: ff c3 00 d1                  	sub	sp, sp, #48
     878: fd 7b 02 a9                  	stp	x29, x30, [sp, #32]
     87c: fd 83 00 91                  	add	x29, sp, #32
     880: a0 83 1f f8                  	stur	x0, [x29, #-8]
     884: e1 0b 00 f9                  	str	x1, [sp, #16]
     888: e2 3f 00 39                  	strb	w2, [sp, #15]
     88c: a8 83 5f f8                  	ldur	x8, [x29, #-8]
     890: e0 03 08 aa                  	mov	x0, x8
     894: e1 3b 00 91                  	add	x1, sp, #14
     898: e2 37 00 91                  	add	x2, sp, #13
     89c: e8 03 00 f9                  	str	x8, [sp]
     8a0: 00 00 00 94                  	bl	#0 <__ZNSt3__112basic_stringIcNS_11char_traitsIcEENS_9allocatorIcEEEC2Emc+0x2c>
     8a4: e1 0b 40 f9                  	ldr	x1, [sp, #16]
     8a8: e2 3f c0 39                  	ldrsb	w2, [sp, #15]
     8ac: e8 03 40 f9                  	ldr	x8, [sp]
     8b0: e0 03 08 aa                  	mov	x0, x8
     8b4: 00 00 00 94                  	bl	#0 <__ZNSt3__112basic_stringIcNS_11char_traitsIcEENS_9allocatorIcEEEC2Emc+0x40>
     8b8: e0 03 40 f9                  	ldr	x0, [sp]
     8bc: fd 7b 42 a9                  	ldp	x29, x30, [sp, #32]
     8c0: ff c3 00 91                  	add	sp, sp, #48
     8c4: c0 03 5f d6                  	ret

00000000000008c8 __ZNSt3__117__compressed_pairINS_12basic_stringIcNS_11char_traitsIcEENS_9allocatorIcEEE5__repES5_EC1INS_18__default_init_tagESA_EEOT_OT0_:
     8c8: ff c3 00 d1                  	sub	sp, sp, #48
     8cc: fd 7b 02 a9                  	stp	x29, x30, [sp, #32]
     8d0: fd 83 00 91                  	add	x29, sp, #32
     8d4: a0 83 1f f8                  	stur	x0, [x29, #-8]
     8d8: e1 0b 00 f9                  	str	x1, [sp, #16]
     8dc: e2 07 00 f9                  	str	x2, [sp, #8]
     8e0: a8 83 5f f8                  	ldur	x8, [x29, #-8]
     8e4: e1 0b 40 f9                  	ldr	x1, [sp, #16]
     8e8: e2 07 40 f9                  	ldr	x2, [sp, #8]
     8ec: e0 03 08 aa                  	mov	x0, x8
     8f0: e8 03 00 f9                  	str	x8, [sp]
     8f4: 00 00 00 94                  	bl	#0 <__ZNSt3__117__compressed_pairINS_12basic_stringIcNS_11char_traitsIcEENS_9allocatorIcEEE5__repES5_EC1INS_18__default_init_tagESA_EEOT_OT0_+0x2c>
     8f8: e8 03 40 f9                  	ldr	x8, [sp]
     8fc: e0 03 08 aa                  	mov	x0, x8
     900: fd 7b 42 a9                  	ldp	x29, x30, [sp, #32]
     904: ff c3 00 91                  	add	sp, sp, #48
     908: c0 03 5f d6                  	ret

000000000000090c __ZNSt3__117__compressed_pairINS_12basic_stringIcNS_11char_traitsIcEENS_9allocatorIcEEE5__repES5_EC2INS_18__default_init_tagESA_EEOT_OT0_:
     90c: ff 03 01 d1                  	sub	sp, sp, #64
     910: fd 7b 03 a9                  	stp	x29, x30, [sp, #48]
     914: fd c3 00 91                  	add	x29, sp, #48
     918: a0 83 1f f8                  	stur	x0, [x29, #-8]
     91c: a1 03 1f f8                  	stur	x1, [x29, #-16]
     920: e2 0f 00 f9                  	str	x2, [sp, #24]
     924: a8 83 5f f8                  	ldur	x8, [x29, #-8]
     928: a0 03 5f f8                  	ldur	x0, [x29, #-16]
     92c: e8 07 00 f9                  	str	x8, [sp, #8]
     930: 00 00 00 94                  	bl	#0 <__ZNSt3__117__compressed_pairINS_12basic_stringIcNS_11char_traitsIcEENS_9allocatorIcEEE5__repES5_EC2INS_18__default_init_tagESA_EEOT_OT0_+0x24>
     934: e8 07 40 f9                  	ldr	x8, [sp, #8]
     938: e0 03 08 aa                  	mov	x0, x8
     93c: 00 00 00 94                  	bl	#0 <__ZNSt3__117__compressed_pairINS_12basic_stringIcNS_11char_traitsIcEENS_9allocatorIcEEE5__repES5_EC2INS_18__default_init_tagESA_EEOT_OT0_+0x30>
     940: e8 0f 40 f9                  	ldr	x8, [sp, #24]
     944: e0 03 08 aa                  	mov	x0, x8
     948: 00 00 00 94                  	bl	#0 <__ZNSt3__117__compressed_pairINS_12basic_stringIcNS_11char_traitsIcEENS_9allocatorIcEEE5__repES5_EC2INS_18__default_init_tagESA_EEOT_OT0_+0x3c>
     94c: e8 07 40 f9                  	ldr	x8, [sp, #8]
     950: e0 03 08 aa                  	mov	x0, x8
     954: 00 00 00 94                  	bl	#0 <__ZNSt3__117__compressed_pairINS_12basic_stringIcNS_11char_traitsIcEENS_9allocatorIcEEE5__repES5_EC2INS_18__default_init_tagESA_EEOT_OT0_+0x48>
     958: e8 07 40 f9                  	ldr	x8, [sp, #8]
     95c: e0 03 08 aa                  	mov	x0, x8
     960: fd 7b 43 a9                  	ldp	x29, x30, [sp, #48]
     964: ff 03 01 91                  	add	sp, sp, #64
     968: c0 03 5f d6                  	ret

000000000000096c __ZNSt3__1L7forwardINS_18__default_init_tagEEEOT_RNS_16remove_referenceIS2_E4typeE:
     96c: ff 43 00 d1                  	sub	sp, sp, #16
     970: e0 07 00 f9                  	str	x0, [sp, #8]
     974: e0 07 40 f9                  	ldr	x0, [sp, #8]
     978: ff 43 00 91                  	add	sp, sp, #16
     97c: c0 03 5f d6                  	ret

0000000000000980 __ZNSt3__122__compressed_pair_elemINS_12basic_stringIcNS_11char_traitsIcEENS_9allocatorIcEEE5__repELi0ELb0EEC2ENS_18__default_init_tagE:
     980: ff 43 00 d1                  	sub	sp, sp, #16
     984: e0 03 00 f9                  	str	x0, [sp]
     988: e0 03 40 f9                  	ldr	x0, [sp]
     98c: ff 43 00 91                  	add	sp, sp, #16
     990: c0 03 5f d6                  	ret

0000000000000994 __ZNSt3__122__compressed_pair_elemINS_9allocatorIcEELi1ELb1EEC2ENS_18__default_init_tagE:
     994: ff c3 00 d1                  	sub	sp, sp, #48
     998: fd 7b 02 a9                  	stp	x29, x30, [sp, #32]
     99c: fd 83 00 91                  	add	x29, sp, #32
     9a0: e0 0b 00 f9                  	str	x0, [sp, #16]
     9a4: e8 0b 40 f9                  	ldr	x8, [sp, #16]
     9a8: e0 03 08 aa                  	mov	x0, x8
     9ac: e8 07 00 f9                  	str	x8, [sp, #8]
     9b0: 00 00 00 94                  	bl	#0 <__ZNSt3__122__compressed_pair_elemINS_9allocatorIcEELi1ELb1EEC2ENS_18__default_init_tagE+0x1c>
     9b4: e8 07 40 f9                  	ldr	x8, [sp, #8]
     9b8: e0 03 08 aa                  	mov	x0, x8
     9bc: fd 7b 42 a9                  	ldp	x29, x30, [sp, #32]
     9c0: ff c3 00 91                  	add	sp, sp, #48
     9c4: c0 03 5f d6                  	ret

00000000000009c8 __ZNSt3__19allocatorIcEC2Ev:
     9c8: ff 43 00 d1                  	sub	sp, sp, #16
     9cc: e0 07 00 f9                  	str	x0, [sp, #8]
     9d0: e0 07 40 f9                  	ldr	x0, [sp, #8]
     9d4: ff 43 00 91                  	add	sp, sp, #16
     9d8: c0 03 5f d6                  	ret

00000000000009dc __ZNSt3__1L12__to_addressIKcEEPT_S3_:
     9dc: ff 43 00 d1                  	sub	sp, sp, #16
     9e0: e0 07 00 f9                  	str	x0, [sp, #8]
     9e4: e0 07 40 f9                  	ldr	x0, [sp, #8]
     9e8: ff 43 00 91                  	add	sp, sp, #16
     9ec: c0 03 5f d6                  	ret

00000000000009f0 __ZNKSt3__112basic_stringIcNS_11char_traitsIcEENS_9allocatorIcEEE13__get_pointerEv:
     9f0: ff c3 00 d1                  	sub	sp, sp, #48
     9f4: fd 7b 02 a9                  	stp	x29, x30, [sp, #32]
     9f8: fd 83 00 91                  	add	x29, sp, #32
     9fc: a0 83 1f f8                  	stur	x0, [x29, #-8]
     a00: a8 83 5f f8                  	ldur	x8, [x29, #-8]
     a04: e0 03 08 aa                  	mov	x0, x8
     a08: e8 0b 00 f9                  	str	x8, [sp, #16]
     a0c: 00 00 00 94                  	bl	#0 <__ZNKSt3__112basic_stringIcNS_11char_traitsIcEENS_9allocatorIcEEE13__get_pointerEv+0x1c>
     a10: 40 00 00 37                  	tbnz	w0, #0, #8 <__ZNKSt3__112basic_stringIcNS_11char_traitsIcEENS_9allocatorIcEEE13__get_pointerEv+0x28>
     a14: 05 00 00 14                  	b	#20 <__ZNKSt3__112basic_stringIcNS_11char_traitsIcEENS_9allocatorIcEEE13__get_pointerEv+0x38>
     a18: e0 0b 40 f9                  	ldr	x0, [sp, #16]
     a1c: 00 00 00 94                  	bl	#0 <__ZNKSt3__112basic_stringIcNS_11char_traitsIcEENS_9allocatorIcEEE13__get_pointerEv+0x2c>
     a20: e0 07 00 f9                  	str	x0, [sp, #8]
     a24: 04 00 00 14                  	b	#16 <__ZNKSt3__112basic_stringIcNS_11char_traitsIcEENS_9allocatorIcEEE13__get_pointerEv+0x44>
     a28: e0 0b 40 f9                  	ldr	x0, [sp, #16]
     a2c: 00 00 00 94                  	bl	#0 <__ZNKSt3__112basic_stringIcNS_11char_traitsIcEENS_9allocatorIcEEE13__get_pointerEv+0x3c>
     a30: e0 07 00 f9                  	str	x0, [sp, #8]
     a34: e8 07 40 f9                  	ldr	x8, [sp, #8]
     a38: e0 03 08 aa                  	mov	x0, x8
     a3c: fd 7b 42 a9                  	ldp	x29, x30, [sp, #32]
     a40: ff c3 00 91                  	add	sp, sp, #48
     a44: c0 03 5f d6                  	ret

0000000000000a48 __ZNKSt3__112basic_stringIcNS_11char_traitsIcEENS_9allocatorIcEEE9__is_longEv:
     a48: ff 83 00 d1                  	sub	sp, sp, #32
     a4c: fd 7b 01 a9                  	stp	x29, x30, [sp, #16]
     a50: fd 43 00 91                  	add	x29, sp, #16
     a54: e0 07 00 f9                  	str	x0, [sp, #8]
     a58: e0 07 40 f9                  	ldr	x0, [sp, #8]
     a5c: 00 00 00 94                  	bl	#0 <__ZNKSt3__112basic_stringIcNS_11char_traitsIcEENS_9allocatorIcEEE9__is_longEv+0x14>
     a60: 08 5c 40 39                  	ldrb	w8, [x0, #23]
     a64: e9 03 08 aa                  	mov	x9, x8
     a68: 3f 01 79 f2                  	tst	x9, #0x80
     a6c: e8 07 9f 1a                  	cset	w8, ne
     a70: 08 01 00 12                  	and	w8, w8, #0x1
     a74: 00 1d 00 12                  	and	w0, w8, #0xff
     a78: fd 7b 41 a9                  	ldp	x29, x30, [sp, #16]
     a7c: ff 83 00 91                  	add	sp, sp, #32
     a80: c0 03 5f d6                  	ret

0000000000000a84 __ZNKSt3__112basic_stringIcNS_11char_traitsIcEENS_9allocatorIcEEE18__get_long_pointerEv:
     a84: ff 83 00 d1                  	sub	sp, sp, #32
     a88: fd 7b 01 a9                  	stp	x29, x30, [sp, #16]
     a8c: fd 43 00 91                  	add	x29, sp, #16
     a90: e0 07 00 f9                  	str	x0, [sp, #8]
     a94: e0 07 40 f9                  	ldr	x0, [sp, #8]
     a98: 00 00 00 94                  	bl	#0 <__ZNKSt3__112basic_stringIcNS_11char_traitsIcEENS_9allocatorIcEEE18__get_long_pointerEv+0x14>
     a9c: 00 00 40 f9                  	ldr	x0, [x0]
     aa0: fd 7b 41 a9                  	ldp	x29, x30, [sp, #16]
     aa4: ff 83 00 91                  	add	sp, sp, #32
     aa8: c0 03 5f d6                  	ret

0000000000000aac __ZNKSt3__112basic_stringIcNS_11char_traitsIcEENS_9allocatorIcEEE19__get_short_pointerEv:
     aac: ff 83 00 d1                  	sub	sp, sp, #32
     ab0: fd 7b 01 a9                  	stp	x29, x30, [sp, #16]
     ab4: fd 43 00 91                  	add	x29, sp, #16
     ab8: e0 07 00 f9                  	str	x0, [sp, #8]
     abc: e0 07 40 f9                  	ldr	x0, [sp, #8]
     ac0: 00 00 00 94                  	bl	#0 <__ZNKSt3__112basic_stringIcNS_11char_traitsIcEENS_9allocatorIcEEE19__get_short_pointerEv+0x14>
     ac4: 00 00 00 94                  	bl	#0 <__ZNKSt3__112basic_stringIcNS_11char_traitsIcEENS_9allocatorIcEEE19__get_short_pointerEv+0x18>
     ac8: fd 7b 41 a9                  	ldp	x29, x30, [sp, #16]
     acc: ff 83 00 91                  	add	sp, sp, #32
     ad0: c0 03 5f d6                  	ret

0000000000000ad4 __ZNKSt3__117__compressed_pairINS_12basic_stringIcNS_11char_traitsIcEENS_9allocatorIcEEE5__repES5_E5firstEv:
     ad4: ff 83 00 d1                  	sub	sp, sp, #32
     ad8: fd 7b 01 a9                  	stp	x29, x30, [sp, #16]
     adc: fd 43 00 91                  	add	x29, sp, #16
     ae0: e0 07 00 f9                  	str	x0, [sp, #8]
     ae4: e0 07 40 f9                  	ldr	x0, [sp, #8]
     ae8: 00 00 00 94                  	bl	#0 <__ZNKSt3__117__compressed_pairINS_12basic_stringIcNS_11char_traitsIcEENS_9allocatorIcEEE5__repES5_E5firstEv+0x14>
     aec: fd 7b 41 a9                  	ldp	x29, x30, [sp, #16]
     af0: ff 83 00 91                  	add	sp, sp, #32
     af4: c0 03 5f d6                  	ret

0000000000000af8 __ZNKSt3__122__compressed_pair_elemINS_12basic_stringIcNS_11char_traitsIcEENS_9allocatorIcEEE5__repELi0ELb0EE5__getEv:
     af8: ff 43 00 d1                  	sub	sp, sp, #16
     afc: e0 07 00 f9                  	str	x0, [sp, #8]
     b00: e0 07 40 f9                  	ldr	x0, [sp, #8]
     b04: ff 43 00 91                  	add	sp, sp, #16
     b08: c0 03 5f d6                  	ret

0000000000000b0c __ZNSt3__114pointer_traitsIPKcE10pointer_toERS1_:
     b0c: ff 83 00 d1                  	sub	sp, sp, #32
     b10: fd 7b 01 a9                  	stp	x29, x30, [sp, #16]
     b14: fd 43 00 91                  	add	x29, sp, #16
     b18: e0 07 00 f9                  	str	x0, [sp, #8]
     b1c: e0 07 40 f9                  	ldr	x0, [sp, #8]
     b20: 00 00 00 94                  	bl	#0 <__ZNSt3__114pointer_traitsIPKcE10pointer_toERS1_+0x14>
     b24: fd 7b 41 a9                  	ldp	x29, x30, [sp, #16]
     b28: ff 83 00 91                  	add	sp, sp, #32
     b2c: c0 03 5f d6                  	ret

0000000000000b30 __ZNSt3__1L9addressofIKcEEPT_RS2_:
     b30: ff 43 00 d1                  	sub	sp, sp, #16
     b34: e0 07 00 f9                  	str	x0, [sp, #8]
     b38: e0 07 40 f9                  	ldr	x0, [sp, #8]
     b3c: ff 43 00 91                  	add	sp, sp, #16
     b40: c0 03 5f d6                  	ret

0000000000000b44 __ZNSt3__119ostreambuf_iteratorIcNS_11char_traitsIcEEEC2ERNS_13basic_ostreamIcS2_EE:
     b44: ff 03 01 d1                  	sub	sp, sp, #64
     b48: fd 7b 03 a9                  	stp	x29, x30, [sp, #48]
     b4c: fd c3 00 91                  	add	x29, sp, #48
     b50: a0 83 1f f8                  	stur	x0, [x29, #-8]
     b54: a1 03 1f f8                  	stur	x1, [x29, #-16]
     b58: a8 83 5f f8                  	ldur	x8, [x29, #-8]
     b5c: a9 03 5f f8                  	ldur	x9, [x29, #-16]
     b60: 2a 01 40 f9                  	ldr	x10, [x9]
     b64: 4a 81 5e f8                  	ldur	x10, [x10, #-24]
     b68: 20 01 0a 8b                  	add	x0, x9, x10
     b6c: e8 07 00 f9                  	str	x8, [sp, #8]
     b70: 00 00 00 94                  	bl	#0 <__ZNSt3__119ostreambuf_iteratorIcNS_11char_traitsIcEEEC2ERNS_13basic_ostreamIcS2_EE+0x2c>
     b74: e0 03 00 f9                  	str	x0, [sp]
     b78: 01 00 00 14                  	b	#4 <__ZNSt3__119ostreambuf_iteratorIcNS_11char_traitsIcEEEC2ERNS_13basic_ostreamIcS2_EE+0x38>
     b7c: e8 03 40 f9                  	ldr	x8, [sp]
     b80: e9 07 40 f9                  	ldr	x9, [sp, #8]
     b84: 28 01 00 f9                  	str	x8, [x9]
     b88: e0 03 09 aa                  	mov	x0, x9
     b8c: fd 7b 43 a9                  	ldp	x29, x30, [sp, #48]
     b90: ff 03 01 91                  	add	sp, sp, #64
     b94: c0 03 5f d6                  	ret
     b98: e0 0f 00 f9                  	str	x0, [sp, #24]
     b9c: e1 17 00 b9                  	str	w1, [sp, #20]
     ba0: e0 0f 40 f9                  	ldr	x0, [sp, #24]
     ba4: 00 00 00 94                  	bl	#0 <__ZNSt3__119ostreambuf_iteratorIcNS_11char_traitsIcEEEC2ERNS_13basic_ostreamIcS2_EE+0x60>

0000000000000ba8 __ZNKSt3__19basic_iosIcNS_11char_traitsIcEEE5rdbufEv:
     ba8: ff 83 00 d1                  	sub	sp, sp, #32
     bac: fd 7b 01 a9                  	stp	x29, x30, [sp, #16]
     bb0: fd 43 00 91                  	add	x29, sp, #16
     bb4: e0 07 00 f9                  	str	x0, [sp, #8]
     bb8: e0 07 40 f9                  	ldr	x0, [sp, #8]
     bbc: 00 00 00 94                  	bl	#0 <__ZNKSt3__19basic_iosIcNS_11char_traitsIcEEE5rdbufEv+0x14>
     bc0: fd 7b 41 a9                  	ldp	x29, x30, [sp, #16]
     bc4: ff 83 00 91                  	add	sp, sp, #32
     bc8: c0 03 5f d6                  	ret

0000000000000bcc __ZNKSt3__18ios_base5rdbufEv:
     bcc: ff 43 00 d1                  	sub	sp, sp, #16
     bd0: e0 07 00 f9                  	str	x0, [sp, #8]
     bd4: e8 07 40 f9                  	ldr	x8, [sp, #8]
     bd8: 00 15 40 f9                  	ldr	x0, [x8, #40]
     bdc: ff 43 00 91                  	add	sp, sp, #16
     be0: c0 03 5f d6                  	ret

0000000000000be4 __ZNSt3__111char_traitsIcE11eq_int_typeEii:
     be4: ff 43 00 d1                  	sub	sp, sp, #16
     be8: e0 0f 00 b9                  	str	w0, [sp, #12]
     bec: e1 0b 00 b9                  	str	w1, [sp, #8]
     bf0: e8 0f 40 b9                  	ldr	w8, [sp, #12]
     bf4: e9 0b 40 b9                  	ldr	w9, [sp, #8]
     bf8: 1f 01 09 6b                  	cmp	w8, w9
     bfc: e8 17 9f 1a                  	cset	w8, eq
     c00: 08 01 00 12                  	and	w8, w8, #0x1
     c04: 00 1d 00 12                  	and	w0, w8, #0xff
     c08: ff 43 00 91                  	add	sp, sp, #16
     c0c: c0 03 5f d6                  	ret

0000000000000c10 __ZNSt3__111char_traitsIcE3eofEv:
     c10: 00 00 80 12                  	mov	w0, #-1
     c14: c0 03 5f d6                  	ret

0000000000000c18 __ZNKSt3__19basic_iosIcNS_11char_traitsIcEEE5widenEc:
     c18: ff 43 01 d1                  	sub	sp, sp, #80
     c1c: fd 7b 04 a9                  	stp	x29, x30, [sp, #64]
     c20: fd 03 01 91                  	add	x29, sp, #64
     c24: a0 83 1f f8                  	stur	x0, [x29, #-8]
     c28: a1 73 1f 38                  	sturb	w1, [x29, #-9]
     c2c: a0 83 5f f8                  	ldur	x0, [x29, #-8]
     c30: a8 63 00 d1                  	sub	x8, x29, #24
     c34: e8 0b 00 f9                  	str	x8, [sp, #16]
     c38: 00 00 00 94                  	bl	#0 <__ZNKSt3__19basic_iosIcNS_11char_traitsIcEEE5widenEc+0x20>
     c3c: e0 0b 40 f9                  	ldr	x0, [sp, #16]
     c40: 00 00 00 94                  	bl	#0 <__ZNKSt3__19basic_iosIcNS_11char_traitsIcEEE5widenEc+0x28>
     c44: e0 07 00 f9                  	str	x0, [sp, #8]
     c48: 01 00 00 14                  	b	#4 <__ZNKSt3__19basic_iosIcNS_11char_traitsIcEEE5widenEc+0x34>
     c4c: a1 73 df 38                  	ldursb	w1, [x29, #-9]
     c50: e0 07 40 f9                  	ldr	x0, [sp, #8]
     c54: 00 00 00 94                  	bl	#0 <__ZNKSt3__19basic_iosIcNS_11char_traitsIcEEE5widenEc+0x3c>
     c58: e0 07 00 b9                  	str	w0, [sp, #4]
     c5c: 01 00 00 14                  	b	#4 <__ZNKSt3__19basic_iosIcNS_11char_traitsIcEEE5widenEc+0x48>
     c60: a0 63 00 d1                  	sub	x0, x29, #24
     c64: 00 00 00 94                  	bl	#0 <__ZNKSt3__19basic_iosIcNS_11char_traitsIcEEE5widenEc+0x4c>
     c68: e1 07 40 b9                  	ldr	w1, [sp, #4]
     c6c: 28 1c 08 53                  	lsl	w8, w1, #24
     c70: 08 7d 18 13                  	asr	w8, w8, #24
     c74: e0 03 08 aa                  	mov	x0, x8
     c78: fd 7b 44 a9                  	ldp	x29, x30, [sp, #64]
     c7c: ff 43 01 91                  	add	sp, sp, #80
     c80: c0 03 5f d6                  	ret
     c84: e0 13 00 f9                  	str	x0, [sp, #32]
     c88: e1 1f 00 b9                  	str	w1, [sp, #28]
     c8c: a0 63 00 d1                  	sub	x0, x29, #24
     c90: 00 00 00 94                  	bl	#0 <__ZNKSt3__19basic_iosIcNS_11char_traitsIcEEE5widenEc+0x78>
     c94: 01 00 00 14                  	b	#4 <__ZNKSt3__19basic_iosIcNS_11char_traitsIcEEE5widenEc+0x80>
     c98: e0 13 40 f9                  	ldr	x0, [sp, #32]
     c9c: 00 00 00 94                  	bl	#0 <__ZNKSt3__19basic_iosIcNS_11char_traitsIcEEE5widenEc+0x84>
     ca0: 00 00 00 94                  	bl	#0 <__ZNKSt3__19basic_iosIcNS_11char_traitsIcEEE5widenEc+0x88>

0000000000000ca4 __ZNSt3__1L9use_facetINS_5ctypeIcEEEERKT_RKNS_6localeE:
     ca4: ff 83 00 d1                  	sub	sp, sp, #32
     ca8: fd 7b 01 a9                  	stp	x29, x30, [sp, #16]
     cac: fd 43 00 91                  	add	x29, sp, #16
     cb0: e0 07 00 f9                  	str	x0, [sp, #8]
     cb4: e0 07 40 f9                  	ldr	x0, [sp, #8]
     cb8: 01 00 00 90                  	adrp	x1, #0
     cbc: 21 00 40 f9                  	ldr	x1, [x1]
     cc0: 00 00 00 94                  	bl	#0 <__ZNSt3__1L9use_facetINS_5ctypeIcEEEERKT_RKNS_6localeE+0x1c>
     cc4: fd 7b 41 a9                  	ldp	x29, x30, [sp, #16]
     cc8: ff 83 00 91                  	add	sp, sp, #32
     ccc: c0 03 5f d6                  	ret

0000000000000cd0 __ZNKSt3__15ctypeIcE5widenEc:
     cd0: ff 83 00 d1                  	sub	sp, sp, #32
     cd4: fd 7b 01 a9                  	stp	x29, x30, [sp, #16]
     cd8: fd 43 00 91                  	add	x29, sp, #16
     cdc: e0 07 00 f9                  	str	x0, [sp, #8]
     ce0: e1 1f 00 39                  	strb	w1, [sp, #7]
     ce4: e8 07 40 f9                  	ldr	x8, [sp, #8]
     ce8: e1 1f c0 39                  	ldrsb	w1, [sp, #7]
     cec: 09 01 40 f9                  	ldr	x9, [x8]
     cf0: 29 1d 40 f9                  	ldr	x9, [x9, #56]
     cf4: e0 03 08 aa                  	mov	x0, x8
     cf8: 20 01 3f d6                  	blr	x9
     cfc: 0a 1c 08 53                  	lsl	w10, w0, #24
     d00: 40 7d 18 13                  	asr	w0, w10, #24
     d04: fd 7b 41 a9                  	ldp	x29, x30, [sp, #16]
     d08: ff 83 00 91                  	add	sp, sp, #32
     d0c: c0 03 5f d6                  	ret

0000000000000d10 __ZNSt3__18ios_base8setstateEj:
     d10: ff 83 00 d1                  	sub	sp, sp, #32
     d14: fd 7b 01 a9                  	stp	x29, x30, [sp, #16]
     d18: fd 43 00 91                  	add	x29, sp, #16
     d1c: e0 07 00 f9                  	str	x0, [sp, #8]
     d20: e1 07 00 b9                  	str	w1, [sp, #4]
     d24: e8 07 40 f9                  	ldr	x8, [sp, #8]
     d28: 09 21 40 b9                  	ldr	w9, [x8, #32]
     d2c: ea 07 40 b9                  	ldr	w10, [sp, #4]
     d30: 21 01 0a 2a                  	orr	w1, w9, w10
     d34: e0 03 08 aa                  	mov	x0, x8
     d38: 00 00 00 94                  	bl	#0 <__ZNSt3__18ios_base8setstateEj+0x28>
     d3c: fd 7b 41 a9                  	ldp	x29, x30, [sp, #16]
     d40: ff 83 00 91                  	add	sp, sp, #32
     d44: c0 03 5f d6                  	ret
